; Function Attrs: mustprogress uwtable
define dso_local void @_ZN4Luau6detail6mkNameERKNS_15AstStatFunctionE(ptr dead_on_unwind noalias writable sret(%"struct.Luau::detail::Identifier") align 8 %0, ptr nocapture noundef nonnull readonly align 8 dereferenceable(48) %1) local_unnamed_addr #2 personality ptr @__gxx_personality_v0 {
  %3 = alloca %"class.std::optional", align 8
  %4 = alloca %"class.std::__cxx11::basic_string", align 8
  %5 = alloca %"class.std::allocator", align 1
  %6 = getelementptr inbounds i8, ptr %1, i64 32
  %7 = load ptr, ptr %6, align 8
  call void @_ZN4Luau6detail6mkNameERKNS_7AstExprE(ptr dead_on_unwind nonnull writable sret(%"class.std::optional") align 8 %3, ptr noundef nonnull align 8 dereferenceable(28) %7)
  %8 = getelementptr inbounds i8, ptr %3, i64 40
  %9 = load i8, ptr %8, align 8
  %10 = trunc i8 %9 to i1
  br i1 %10, label %19, label %11

11:                                               ; preds = %2
  %12 = call ptr @__cxa_allocate_exception(i64 104) #19
  call void @_ZNSaIcEC1Ev(ptr noundef nonnull align 1 dereferenceable(1) %5) #19
  invoke void @_ZNSt7__cxx1112basic_stringIcSt11char_traitsIcESaIcEEC2IS3_EEPKcRKS3_(ptr noundef nonnull align 8 dereferenceable(32) %4, ptr noundef nonnull @.str.53, ptr noundef nonnull align 1 dereferenceable(1) %5)
          to label %13 unwind label %.thread

13:                                               ; preds = %11
  invoke void @_ZN4Luau21InternalCompilerErrorC2ERKNSt7__cxx1112basic_stringIcSt11char_traitsIcESaIcEEE(ptr noundef nonnull align 8 dereferenceable(100) %12, ptr noundef nonnull align 8 dereferenceable(32) %4)
          to label %14 unwind label %16

14:                                               ; preds = %13
  invoke void @__cxa_throw(ptr nonnull %12, ptr nonnull @_ZTIN4Luau21InternalCompilerErrorE, ptr nonnull @_ZN4Luau21InternalCompilerErrorD2Ev) #20
          to label %33 unwind label %16

.thread:                                          ; preds = %11
  %15 = landingpad { ptr, i32 }
          cleanup
  call void @_ZNSaIcED1Ev(ptr noundef nonnull align 1 dereferenceable(1) %5) #19
  br label %18

16:                                               ; preds = %13, %14
  %.0 = phi i1 [ false, %14 ], [ true, %13 ]
  %17 = landingpad { ptr, i32 }
          cleanup
  call void @_ZNSt7__cxx1112basic_stringIcSt11char_traitsIcESaIcEED1Ev(ptr noundef nonnull align 8 dereferenceable(32) %4) #19
  call void @_ZNSaIcED1Ev(ptr noundef nonnull align 1 dereferenceable(1) %5) #19
  br i1 %.0, label %18, label %29

18:                                               ; preds = %.thread, %16
  %.pn13 = phi { ptr, i32 } [ %15, %.thread ], [ %17, %16 ]
  call void @__cxa_free_exception(ptr %12) #19
  br label %29

19:                                               ; preds = %2
  invoke void @_ZNSt7__cxx1112basic_stringIcSt11char_traitsIcESaIcEEC1ERKS4_(ptr noundef nonnull align 8 dereferenceable(32) %0, ptr noundef nonnull align 8 dereferenceable(32) %3)
          to label %20 unwind label %27

20:                                               ; preds = %19
  %21 = getelementptr inbounds i8, ptr %0, i64 32
  %22 = getelementptr inbounds i8, ptr %3, i64 32
  %23 = load ptr, ptr %22, align 8
  store ptr %23, ptr %21, align 8
  %24 = load i8, ptr %8, align 8
  %25 = trunc i8 %24 to i1
  br i1 %25, label %26, label %_ZNSt8optionalIN4Luau6detail10IdentifierEED2Ev.exit

26:                                               ; preds = %20
  store i8 0, ptr %8, align 8
  call void @_ZNSt7__cxx1112basic_stringIcSt11char_traitsIcESaIcEED1Ev(ptr noundef nonnull align 8 dereferenceable(32) %3) #19
  br label %_ZNSt8optionalIN4Luau6detail10IdentifierEED2Ev.exit

_ZNSt8optionalIN4Luau6detail10IdentifierEED2Ev.exit: ; preds = %20, %26
  ret void

27:                                               ; preds = %19
  %28 = landingpad { ptr, i32 }
          cleanup
  br label %29

29:                                               ; preds = %16, %18, %27
  %.pn8 = phi { ptr, i32 } [ %28, %27 ], [ %.pn13, %18 ], [ %17, %16 ]
  %30 = load i8, ptr %8, align 8
  %31 = trunc i8 %30 to i1
  br i1 %31, label %32, label %_ZNSt8optionalIN4Luau6detail10IdentifierEED2Ev.exit10

32:                                               ; preds = %29
  store i8 0, ptr %8, align 8
  call void @_ZNSt7__cxx1112basic_stringIcSt11char_traitsIcESaIcEED1Ev(ptr noundef nonnull align 8 dereferenceable(32) %3) #19
  br label %_ZNSt8optionalIN4Luau6detail10IdentifierEED2Ev.exit10

_ZNSt8optionalIN4Luau6detail10IdentifierEED2Ev.exit10: ; preds = %29, %32
  resume { ptr, i32 } %.pn8

33:                                               ; preds = %14
  unreachable
}